target datalayout = "e-m:e-p270:32:32-p271:32:32-p272:64:64-i64:64-i128:128-f80:128-n8:16:32:64-S128"
target triple = "x86_64-pc-linux-gnu"

%"struct.cv::GMatDesc" = type { i32, i32, %"class.cv::Size_", i8, %"class.std::vector.5" }
%"class.cv::Size_" = type { i32, i32 }
%"class.std::vector.5" = type { %"struct.std::_Vector_base.6" }
%"struct.std::_Vector_base.6" = type { %"struct.std::_Vector_base<int, std::allocator<int>>::_Vector_impl" }
%"struct.std::_Vector_base<int, std::allocator<int>>::_Vector_impl" = type { %"struct.std::_Vector_base<int, std::allocator<int>>::_Vector_impl_data" }
%"struct.std::_Vector_base<int, std::allocator<int>>::_Vector_impl_data" = type { ptr, ptr, ptr }
%"struct.cv::gapi::fluid::Buffer::Cache" = type { %"class.std::vector.10", %"struct.cv::GMatDesc" }
%"class.std::vector.10" = type { %"struct.std::_Vector_base.11" }
%"struct.std::_Vector_base.11" = type { %"struct.std::_Vector_base<unsigned char *, std::allocator<unsigned char *>>::_Vector_impl" }
%"struct.std::_Vector_base<unsigned char *, std::allocator<unsigned char *>>::_Vector_impl" = type { %"struct.std::_Vector_base<unsigned char *, std::allocator<unsigned char *>>::_Vector_impl_data" }
%"struct.std::_Vector_base<unsigned char *, std::allocator<unsigned char *>>::_Vector_impl_data" = type { ptr, ptr, ptr }

; Function Attrs: mustprogress nounwind uwtable
define linkonce_odr hidden noundef nonnull align 8 dereferenceable(8) ptr @_ZNSt6vectorIPhSaIS0_EEixEm(ptr noundef nonnull align 8 dereferenceable(24) %0, i64 noundef %1) #8 comdat align 2 {
  %3 = alloca ptr, align 8
  %4 = alloca i64, align 8
  store ptr %0, ptr %3, align 8, !tbaa !83
  store i64 %1, ptr %4, align 8, !tbaa !46
  %5 = load ptr, ptr %3, align 8
  %6 = getelementptr inbounds nuw %"struct.std::_Vector_base.11", ptr %5, i32 0, i32 0
  %7 = getelementptr inbounds nuw %"struct.std::_Vector_base<unsigned char *, std::allocator<unsigned char *>>::_Vector_impl_data", ptr %6, i32 0, i32 0
  %8 = load ptr, ptr %7, align 8, !tbaa !85
  %9 = load i64, ptr %4, align 8, !tbaa !46
  %10 = getelementptr inbounds nuw ptr, ptr %8, i64 %9
  ret ptr %10
}

; Function Attrs: mustprogress uwtable
define hidden void @_ZN2cv4gapi5fluid13BufferStorage14updateOutCacheERNS1_6Buffer5CacheEii(ptr noundef nonnull align 8 dereferenceable(104) %0, ptr noundef nonnull align 8 dereferenceable(72) %1, i32 noundef %2, i32 noundef %3) #4 align 2 {
  %5 = alloca ptr, align 8
  %6 = alloca ptr, align 8
  %7 = alloca i32, align 4
  %8 = alloca i32, align 4
  %9 = alloca i32, align 4
  store ptr %0, ptr %5, align 8, !tbaa !48
  store ptr %1, ptr %6, align 8, !tbaa !80
  store i32 %2, ptr %7, align 4, !tbaa !20
  store i32 %3, ptr %8, align 4, !tbaa !20
  %10 = load ptr, ptr %5, align 8
  call void @llvm.lifetime.start.p0(i64 4, ptr %9) #3
  store i32 0, ptr %9, align 4, !tbaa !20
  br label %11

11:                                               ; preds = %29, %4
  %12 = load i32, ptr %9, align 4, !tbaa !20
  %13 = load i32, ptr %8, align 4, !tbaa !20
  %14 = icmp slt i32 %12, %13
  br i1 %14, label %16, label %15

15:                                               ; preds = %11
  call void @llvm.lifetime.end.p0(i64 4, ptr %9) #3
  br label %32

16:                                               ; preds = %11
  %17 = load i32, ptr %7, align 4, !tbaa !20
  %18 = load i32, ptr %9, align 4, !tbaa !20
  %19 = add nsw i32 %17, %18
  %20 = load ptr, ptr %10, align 8, !tbaa !21
  %21 = getelementptr inbounds ptr, ptr %20, i64 4
  %22 = load ptr, ptr %21, align 8
  %23 = call noundef ptr %22(ptr noundef nonnull align 8 dereferenceable(104) %10, i32 noundef %19)
  %24 = load ptr, ptr %6, align 8, !tbaa !80
  %25 = getelementptr inbounds nuw %"struct.cv::gapi::fluid::Buffer::Cache", ptr %24, i32 0, i32 0
  %26 = load i32, ptr %9, align 4, !tbaa !20
  %27 = sext i32 %26 to i64
  %28 = call noundef nonnull align 8 dereferenceable(8) ptr @_ZNSt6vectorIPhSaIS0_EEixEm(ptr noundef nonnull align 8 dereferenceable(24) %25, i64 noundef %27) #3
  store ptr %23, ptr %28, align 8, !tbaa !29
  br label %29

29:                                               ; preds = %16
  %30 = load i32, ptr %9, align 4, !tbaa !20
  %31 = add nsw i32 %30, 1
  store i32 %31, ptr %9, align 4, !tbaa !20
  br label %11, !llvm.loop !82

32:                                               ; preds = %15
  ret void
}