; Function Attrs: mustprogress uwtable
define hidden void @_ZN2cv4gapi5fluid13BufferStorage14updateOutCacheERNS1_6Buffer5CacheEii(ptr noundef nonnull align 8 dereferenceable(104) %0, ptr noundef nonnull readonly align 8 captures(none) dereferenceable(72) %1, i32 noundef %2, i32 noundef %3) local_unnamed_addr #4 align 2 {
  %5 = icmp sgt i32 %3, 0
  br i1 %5, label %.lr.ph.preheader, label %._crit_edge

.lr.ph.preheader:                                 ; preds = %4
  %wide.trip.count = zext nneg i32 %3 to i64
  br label %.lr.ph

._crit_edge:                                      ; preds = %.lr.ph, %4
  ret void

.lr.ph:                                           ; preds = %.lr.ph.preheader, %.lr.ph
  %indvars.iv = phi i64 [ 0, %.lr.ph.preheader ], [ %indvars.iv.next, %.lr.ph ]
  %6 = load ptr, ptr %0, align 8, !tbaa !13
  %7 = getelementptr inbounds nuw i8, ptr %6, i64 32
  %8 = load ptr, ptr %7, align 8
  %9 = trunc i64 %indvars.iv to i32
  %10 = add i32 %2, %9
  %11 = tail call noundef ptr %8(ptr noundef nonnull align 8 dereferenceable(104) %0, i32 noundef %10)
  %12 = load ptr, ptr %1, align 8, !tbaa !62
  %13 = getelementptr inbounds nuw ptr, ptr %12, i64 %indvars.iv
  store ptr %11, ptr %13, align 8, !tbaa !60
  %indvars.iv.next = add nuw nsw i64 %indvars.iv, 1
  %exitcond.not = icmp eq i64 %indvars.iv.next, %wide.trip.count
  br i1 %exitcond.not, label %._crit_edge, label %.lr.ph, !llvm.loop !64
}